target datalayout = "e-m:e-p270:32:32-p271:32:32-p272:64:64-i64:64-i128:128-f80:128-n8:16:32:64-S128"
target triple = "x86_64-pc-linux-gnu"

; Function Attrs: nounwind uwtable
define internal void @conv_AV_SAMPLE_FMT_DBL_to_AV_SAMPLE_FMT_FLT(ptr noundef %0, ptr noundef %1, i32 noundef %2, i32 noundef %3, ptr noundef %4) #0 {
  %6 = alloca ptr, align 8
  %7 = alloca ptr, align 8
  %8 = alloca i32, align 4
  %9 = alloca i32, align 4
  %10 = alloca ptr, align 8
  %11 = alloca ptr, align 8
  store ptr %0, ptr %6, align 8, !tbaa !22
  store ptr %1, ptr %7, align 8, !tbaa !22
  store i32 %2, ptr %8, align 4, !tbaa !4
  store i32 %3, ptr %9, align 4, !tbaa !4
  store ptr %4, ptr %10, align 8, !tbaa !22
  call void @llvm.lifetime.start.p0(i64 8, ptr %11) #8
  %12 = load ptr, ptr %10, align 8, !tbaa !22
  %13 = load i32, ptr %9, align 4, !tbaa !4
  %14 = mul nsw i32 3, %13
  %15 = sext i32 %14 to i64
  %16 = sub i64 0, %15
  %17 = getelementptr inbounds i8, ptr %12, i64 %16
  store ptr %17, ptr %11, align 8, !tbaa !22
  br label %18

18:                                               ; preds = %22, %5
  %19 = load ptr, ptr %6, align 8, !tbaa !22
  %20 = load ptr, ptr %11, align 8, !tbaa !22
  %21 = icmp ult ptr %19, %20
  br i1 %21, label %22, label %71

22:                                               ; preds = %18
  %23 = load ptr, ptr %7, align 8, !tbaa !22
  %24 = load double, ptr %23, align 8, !tbaa !52
  %25 = fptrunc nsz double %24 to float
  %26 = load ptr, ptr %6, align 8, !tbaa !22
  store float %25, ptr %26, align 4, !tbaa !48
  %27 = load i32, ptr %8, align 4, !tbaa !4
  %28 = load ptr, ptr %7, align 8, !tbaa !22
  %29 = sext i32 %27 to i64
  %30 = getelementptr inbounds i8, ptr %28, i64 %29
  store ptr %30, ptr %7, align 8, !tbaa !22
  %31 = load i32, ptr %9, align 4, !tbaa !4
  %32 = load ptr, ptr %6, align 8, !tbaa !22
  %33 = sext i32 %31 to i64
  %34 = getelementptr inbounds i8, ptr %32, i64 %33
  store ptr %34, ptr %6, align 8, !tbaa !22
  %35 = load ptr, ptr %7, align 8, !tbaa !22
  %36 = load double, ptr %35, align 8, !tbaa !52
  %37 = fptrunc nsz double %36 to float
  %38 = load ptr, ptr %6, align 8, !tbaa !22
  store float %37, ptr %38, align 4, !tbaa !48
  %39 = load i32, ptr %8, align 4, !tbaa !4
  %40 = load ptr, ptr %7, align 8, !tbaa !22
  %41 = sext i32 %39 to i64
  %42 = getelementptr inbounds i8, ptr %40, i64 %41
  store ptr %42, ptr %7, align 8, !tbaa !22
  %43 = load i32, ptr %9, align 4, !tbaa !4
  %44 = load ptr, ptr %6, align 8, !tbaa !22
  %45 = sext i32 %43 to i64
  %46 = getelementptr inbounds i8, ptr %44, i64 %45
  store ptr %46, ptr %6, align 8, !tbaa !22
  %47 = load ptr, ptr %7, align 8, !tbaa !22
  %48 = load double, ptr %47, align 8, !tbaa !52
  %49 = fptrunc nsz double %48 to float
  %50 = load ptr, ptr %6, align 8, !tbaa !22
  store float %49, ptr %50, align 4, !tbaa !48
  %51 = load i32, ptr %8, align 4, !tbaa !4
  %52 = load ptr, ptr %7, align 8, !tbaa !22
  %53 = sext i32 %51 to i64
  %54 = getelementptr inbounds i8, ptr %52, i64 %53
  store ptr %54, ptr %7, align 8, !tbaa !22
  %55 = load i32, ptr %9, align 4, !tbaa !4
  %56 = load ptr, ptr %6, align 8, !tbaa !22
  %57 = sext i32 %55 to i64
  %58 = getelementptr inbounds i8, ptr %56, i64 %57
  store ptr %58, ptr %6, align 8, !tbaa !22
  %59 = load ptr, ptr %7, align 8, !tbaa !22
  %60 = load double, ptr %59, align 8, !tbaa !52
  %61 = fptrunc nsz double %60 to float
  %62 = load ptr, ptr %6, align 8, !tbaa !22
  store float %61, ptr %62, align 4, !tbaa !48
  %63 = load i32, ptr %8, align 4, !tbaa !4
  %64 = load ptr, ptr %7, align 8, !tbaa !22
  %65 = sext i32 %63 to i64
  %66 = getelementptr inbounds i8, ptr %64, i64 %65
  store ptr %66, ptr %7, align 8, !tbaa !22
  %67 = load i32, ptr %9, align 4, !tbaa !4
  %68 = load ptr, ptr %6, align 8, !tbaa !22
  %69 = sext i32 %67 to i64
  %70 = getelementptr inbounds i8, ptr %68, i64 %69
  store ptr %70, ptr %6, align 8, !tbaa !22
  br label %18, !llvm.loop !102

71:                                               ; preds = %18
  br label %72

72:                                               ; preds = %76, %71
  %73 = load ptr, ptr %6, align 8, !tbaa !22
  %74 = load ptr, ptr %10, align 8, !tbaa !22
  %75 = icmp ult ptr %73, %74
  br i1 %75, label %76, label %89

76:                                               ; preds = %72
  %77 = load ptr, ptr %7, align 8, !tbaa !22
  %78 = load double, ptr %77, align 8, !tbaa !52
  %79 = fptrunc nsz double %78 to float
  %80 = load ptr, ptr %6, align 8, !tbaa !22
  store float %79, ptr %80, align 4, !tbaa !48
  %81 = load i32, ptr %8, align 4, !tbaa !4
  %82 = load ptr, ptr %7, align 8, !tbaa !22
  %83 = sext i32 %81 to i64
  %84 = getelementptr inbounds i8, ptr %82, i64 %83
  store ptr %84, ptr %7, align 8, !tbaa !22
  %85 = load i32, ptr %9, align 4, !tbaa !4
  %86 = load ptr, ptr %6, align 8, !tbaa !22
  %87 = sext i32 %85 to i64
  %88 = getelementptr inbounds i8, ptr %86, i64 %87
  store ptr %88, ptr %6, align 8, !tbaa !22
  br label %72, !llvm.loop !103

89:                                               ; preds = %72
  call void @llvm.lifetime.end.p0(i64 8, ptr %11) #8
  ret void
}