; Function Attrs: nofree norecurse nosync nounwind memory(argmem: readwrite) uwtable
define internal void @conv_AV_SAMPLE_FMT_DBL_to_AV_SAMPLE_FMT_FLT(ptr noundef writeonly captures(address) %0, ptr noundef readonly captures(none) %1, i32 noundef %2, i32 noundef %3, ptr noundef readnone captures(address) %4) #4 {
  %6 = mul nsw i32 %3, 3
  %7 = sext i32 %6 to i64
  %8 = sub nsw i64 0, %7
  %9 = getelementptr inbounds i8, ptr %4, i64 %8
  %10 = icmp ult ptr %0, %9
  br i1 %10, label %.lr.ph, label %.preheader

.lr.ph:                                           ; preds = %5
  %11 = sext i32 %2 to i64
  %12 = sext i32 %3 to i64
  br label %16

.preheader:                                       ; preds = %16, %5
  %.035.lcssa = phi ptr [ %1, %5 ], [ %31, %16 ]
  %.0.lcssa = phi ptr [ %0, %5 ], [ %32, %16 ]
  %13 = icmp ult ptr %.0.lcssa, %4
  br i1 %13, label %.lr.ph42, label %._crit_edge

.lr.ph42:                                         ; preds = %.preheader
  %14 = sext i32 %2 to i64
  %15 = sext i32 %3 to i64
  br label %34

16:                                               ; preds = %.lr.ph, %16
  %.038 = phi ptr [ %0, %.lr.ph ], [ %32, %16 ]
  %.03537 = phi ptr [ %1, %.lr.ph ], [ %31, %16 ]
  %17 = load double, ptr %.03537, align 8, !tbaa !42
  %18 = fptrunc nsz double %17 to float
  store float %18, ptr %.038, align 4, !tbaa !38
  %19 = getelementptr inbounds i8, ptr %.03537, i64 %11
  %20 = getelementptr inbounds i8, ptr %.038, i64 %12
  %21 = load double, ptr %19, align 8, !tbaa !42
  %22 = fptrunc nsz double %21 to float
  store float %22, ptr %20, align 4, !tbaa !38
  %23 = getelementptr inbounds i8, ptr %19, i64 %11
  %24 = getelementptr inbounds i8, ptr %20, i64 %12
  %25 = load double, ptr %23, align 8, !tbaa !42
  %26 = fptrunc nsz double %25 to float
  store float %26, ptr %24, align 4, !tbaa !38
  %27 = getelementptr inbounds i8, ptr %23, i64 %11
  %28 = getelementptr inbounds i8, ptr %24, i64 %12
  %29 = load double, ptr %27, align 8, !tbaa !42
  %30 = fptrunc nsz double %29 to float
  store float %30, ptr %28, align 4, !tbaa !38
  %31 = getelementptr inbounds i8, ptr %27, i64 %11
  %32 = getelementptr inbounds i8, ptr %28, i64 %12
  %33 = icmp ult ptr %32, %9
  br i1 %33, label %16, label %.preheader, !llvm.loop !92

34:                                               ; preds = %.lr.ph42, %34
  %.141 = phi ptr [ %.0.lcssa, %.lr.ph42 ], [ %38, %34 ]
  %.13640 = phi ptr [ %.035.lcssa, %.lr.ph42 ], [ %37, %34 ]
  %35 = load double, ptr %.13640, align 8, !tbaa !42
  %36 = fptrunc nsz double %35 to float
  store float %36, ptr %.141, align 4, !tbaa !38
  %37 = getelementptr inbounds i8, ptr %.13640, i64 %14
  %38 = getelementptr inbounds i8, ptr %.141, i64 %15
  %39 = icmp ult ptr %38, %4
  br i1 %39, label %34, label %._crit_edge, !llvm.loop !93

._crit_edge:                                      ; preds = %34, %.preheader
  ret void
}